target datalayout = "e-m:e-p270:32:32-p271:32:32-p272:64:64-i64:64-i128:128-f80:128-n8:16:32:64-S128"
target triple = "x86_64-pc-linux-gnu"

%struct.ARKodeARKStepMemRec = type { ptr, ptr, i32, i32, i32, i32, i32, i32, ptr, ptr, ptr, ptr, ptr, ptr, i32, i32, i32, i32, ptr, ptr, ptr, ptr, i32, ptr, double, double, double, double, i32, double, double, double, double, double, double, i32, i64, i32, i32, i32, ptr, ptr, ptr, ptr, ptr, ptr, i32, ptr, ptr, ptr, ptr, ptr, ptr, i32, i32, i64, i64, i64, i64, i64, ptr, ptr, i32, i32, i32, double, double, ptr, i32, ptr, ptr }

; Function Attrs: nounwind uwtable
define void @arkStep_ApplyForcing(ptr noundef %0, ptr noundef %1, ptr noundef %2, i32 noundef %3, ptr noundef %4) #0 {
  %6 = alloca ptr, align 8
  %7 = alloca ptr, align 8
  %8 = alloca ptr, align 8
  %9 = alloca i32, align 4
  %10 = alloca ptr, align 8
  %11 = alloca double, align 8
  %12 = alloca double, align 8
  %13 = alloca i32, align 4
  %14 = alloca i32, align 4
  %15 = alloca ptr, align 8
  %16 = alloca ptr, align 8
  %17 = alloca double, align 8
  %18 = alloca double, align 8
  %19 = alloca i32, align 4
  %20 = alloca ptr, align 8
  %21 = alloca i32, align 4
  store ptr %0, ptr %6, align 8, !tbaa !17
  store ptr %1, ptr %7, align 8, !tbaa !128
  store ptr %2, ptr %8, align 8, !tbaa !128
  store i32 %3, ptr %9, align 4, !tbaa !13
  store ptr %4, ptr %10, align 8, !tbaa !131
  call void @llvm.lifetime.start.p0(i64 8, ptr %11) #8
  call void @llvm.lifetime.start.p0(i64 8, ptr %12) #8
  call void @llvm.lifetime.start.p0(i64 4, ptr %13) #8
  call void @llvm.lifetime.start.p0(i64 4, ptr %14) #8
  call void @llvm.lifetime.start.p0(i64 8, ptr %15) #8
  %22 = load ptr, ptr %6, align 8, !tbaa !17
  %23 = getelementptr inbounds nuw %struct.ARKodeARKStepMemRec, ptr %22, i32 0, i32 60
  %24 = load ptr, ptr %23, align 8, !tbaa !110
  store ptr %24, ptr %15, align 8, !tbaa !128
  call void @llvm.lifetime.start.p0(i64 8, ptr %16) #8
  %25 = load ptr, ptr %6, align 8, !tbaa !17
  %26 = getelementptr inbounds nuw %struct.ARKodeARKStepMemRec, ptr %25, i32 0, i32 61
  %27 = load ptr, ptr %26, align 8, !tbaa !111
  store ptr %27, ptr %16, align 8, !tbaa !173
  call void @llvm.lifetime.start.p0(i64 8, ptr %17) #8
  %28 = load ptr, ptr %6, align 8, !tbaa !17
  %29 = getelementptr inbounds nuw %struct.ARKodeARKStepMemRec, ptr %28, i32 0, i32 65
  %30 = load double, ptr %29, align 8, !tbaa !214
  store double %30, ptr %17, align 8, !tbaa !7
  call void @llvm.lifetime.start.p0(i64 8, ptr %18) #8
  %31 = load ptr, ptr %6, align 8, !tbaa !17
  %32 = getelementptr inbounds nuw %struct.ARKodeARKStepMemRec, ptr %31, i32 0, i32 66
  %33 = load double, ptr %32, align 8, !tbaa !215
  store double %33, ptr %18, align 8, !tbaa !7
  call void @llvm.lifetime.start.p0(i64 4, ptr %19) #8
  %34 = load ptr, ptr %6, align 8, !tbaa !17
  %35 = getelementptr inbounds nuw %struct.ARKodeARKStepMemRec, ptr %34, i32 0, i32 68
  %36 = load i32, ptr %35, align 8, !tbaa !116
  store i32 %36, ptr %19, align 4, !tbaa !13
  call void @llvm.lifetime.start.p0(i64 8, ptr %20) #8
  %37 = load ptr, ptr %6, align 8, !tbaa !17
  %38 = getelementptr inbounds nuw %struct.ARKodeARKStepMemRec, ptr %37, i32 0, i32 67
  %39 = load ptr, ptr %38, align 8, !tbaa !115
  store ptr %39, ptr %20, align 8, !tbaa !173
  call void @llvm.lifetime.start.p0(i64 4, ptr %21) #8
  %40 = load ptr, ptr %10, align 8, !tbaa !131
  %41 = load i32, ptr %40, align 4, !tbaa !13
  store i32 %41, ptr %21, align 4, !tbaa !13
  store i32 0, ptr %14, align 4, !tbaa !13
  br label %42

42:                                               ; preds = %64, %5
  %43 = load i32, ptr %14, align 4, !tbaa !13
  %44 = load i32, ptr %19, align 4, !tbaa !13
  %45 = icmp slt i32 %43, %44
  br i1 %45, label %46, label %67

46:                                               ; preds = %42
  %47 = load ptr, ptr %15, align 8, !tbaa !128
  %48 = load i32, ptr %21, align 4, !tbaa !13
  %49 = load i32, ptr %14, align 4, !tbaa !13
  %50 = add nsw i32 %48, %49
  %51 = sext i32 %50 to i64
  %52 = getelementptr inbounds double, ptr %47, i64 %51
  store double 0.000000e+00, ptr %52, align 8, !tbaa !7
  %53 = load ptr, ptr %20, align 8, !tbaa !173
  %54 = load i32, ptr %14, align 4, !tbaa !13
  %55 = sext i32 %54 to i64
  %56 = getelementptr inbounds ptr, ptr %53, i64 %55
  %57 = load ptr, ptr %56, align 8, !tbaa !9
  %58 = load ptr, ptr %16, align 8, !tbaa !173
  %59 = load i32, ptr %21, align 4, !tbaa !13
  %60 = load i32, ptr %14, align 4, !tbaa !13
  %61 = add nsw i32 %59, %60
  %62 = sext i32 %61 to i64
  %63 = getelementptr inbounds ptr, ptr %58, i64 %62
  store ptr %57, ptr %63, align 8, !tbaa !9
  br label %64

64:                                               ; preds = %46
  %65 = load i32, ptr %14, align 4, !tbaa !13
  %66 = add nsw i32 %65, 1
  store i32 %66, ptr %14, align 4, !tbaa !13
  br label %42

67:                                               ; preds = %42
  store i32 0, ptr %13, align 4, !tbaa !13
  br label %68

68:                                               ; preds = %108, %67
  %69 = load i32, ptr %13, align 4, !tbaa !13
  %70 = load i32, ptr %9, align 4, !tbaa !13
  %71 = icmp slt i32 %69, %70
  br i1 %71, label %72, label %111

72:                                               ; preds = %68
  %73 = load ptr, ptr %7, align 8, !tbaa !128
  %74 = load i32, ptr %13, align 4, !tbaa !13
  %75 = sext i32 %74 to i64
  %76 = getelementptr inbounds double, ptr %73, i64 %75
  %77 = load double, ptr %76, align 8, !tbaa !7
  %78 = load double, ptr %17, align 8, !tbaa !7
  %79 = fsub double %77, %78
  %80 = load double, ptr %18, align 8, !tbaa !7
  %81 = fdiv double %79, %80
  store double %81, ptr %11, align 8, !tbaa !7
  store double 1.000000e+00, ptr %12, align 8, !tbaa !7
  store i32 0, ptr %14, align 4, !tbaa !13
  br label %82

82:                                               ; preds = %104, %72
  %83 = load i32, ptr %14, align 4, !tbaa !13
  %84 = load i32, ptr %19, align 4, !tbaa !13
  %85 = icmp slt i32 %83, %84
  br i1 %85, label %86, label %107

86:                                               ; preds = %82
  %87 = load ptr, ptr %8, align 8, !tbaa !128
  %88 = load i32, ptr %13, align 4, !tbaa !13
  %89 = sext i32 %88 to i64
  %90 = getelementptr inbounds double, ptr %87, i64 %89
  %91 = load double, ptr %90, align 8, !tbaa !7
  %92 = load double, ptr %12, align 8, !tbaa !7
  %93 = load ptr, ptr %15, align 8, !tbaa !128
  %94 = load i32, ptr %21, align 4, !tbaa !13
  %95 = load i32, ptr %14, align 4, !tbaa !13
  %96 = add nsw i32 %94, %95
  %97 = sext i32 %96 to i64
  %98 = getelementptr inbounds double, ptr %93, i64 %97
  %99 = load double, ptr %98, align 8, !tbaa !7
  %100 = call double @llvm.fmuladd.f64(double %91, double %92, double %99)
  store double %100, ptr %98, align 8, !tbaa !7
  %101 = load double, ptr %11, align 8, !tbaa !7
  %102 = load double, ptr %12, align 8, !tbaa !7
  %103 = fmul double %102, %101
  store double %103, ptr %12, align 8, !tbaa !7
  br label %104

104:                                              ; preds = %86
  %105 = load i32, ptr %14, align 4, !tbaa !13
  %106 = add nsw i32 %105, 1
  store i32 %106, ptr %14, align 4, !tbaa !13
  br label %82

107:                                              ; preds = %82
  br label %108

108:                                              ; preds = %107
  %109 = load i32, ptr %13, align 4, !tbaa !13
  %110 = add nsw i32 %109, 1
  store i32 %110, ptr %13, align 4, !tbaa !13
  br label %68

111:                                              ; preds = %68
  %112 = load i32, ptr %19, align 4, !tbaa !13
  %113 = load ptr, ptr %10, align 8, !tbaa !131
  %114 = load i32, ptr %113, align 4, !tbaa !13
  %115 = add nsw i32 %114, %112
  store i32 %115, ptr %113, align 4, !tbaa !13
  call void @llvm.lifetime.end.p0(i64 4, ptr %21) #8
  call void @llvm.lifetime.end.p0(i64 8, ptr %20) #8
  call void @llvm.lifetime.end.p0(i64 4, ptr %19) #8
  call void @llvm.lifetime.end.p0(i64 8, ptr %18) #8
  call void @llvm.lifetime.end.p0(i64 8, ptr %17) #8
  call void @llvm.lifetime.end.p0(i64 8, ptr %16) #8
  call void @llvm.lifetime.end.p0(i64 8, ptr %15) #8
  call void @llvm.lifetime.end.p0(i64 4, ptr %14) #8
  call void @llvm.lifetime.end.p0(i64 4, ptr %13) #8
  call void @llvm.lifetime.end.p0(i64 8, ptr %12) #8
  call void @llvm.lifetime.end.p0(i64 8, ptr %11) #8
  ret void
}